; Function Attrs: inlinehint mustprogress nounwind uwtable
define internal fastcc void @_ZN3ue212_GLOBAL__N_110InitDepthsD2Ev(ptr noundef nonnull readonly align 8 captures(none) dereferenceable(48) %0) unnamed_addr #5 align 2 personality ptr @__gxx_personality_v0 {
  %2 = getelementptr inbounds nuw i8, ptr %0, i64 24
  %3 = load ptr, ptr %2, align 8
  %.not.i.i.i = icmp eq ptr %3, null
  br i1 %.not.i.i.i, label %_ZNSt6vectorIN3ue211DepthMinMaxESaIS1_EED2Ev.exit, label %4

4:                                                ; preds = %1
  tail call void @_ZdlPv(ptr noundef nonnull %3) #15
  br label %_ZNSt6vectorIN3ue211DepthMinMaxESaIS1_EED2Ev.exit

_ZNSt6vectorIN3ue211DepthMinMaxESaIS1_EED2Ev.exit: ; preds = %1, %4
  %5 = load ptr, ptr %0, align 8
  %.not.i.i.i1 = icmp eq ptr %5, null
  br i1 %.not.i.i.i1, label %_ZNSt6vectorIN3ue211DepthMinMaxESaIS1_EED2Ev.exit2, label %6

6:                                                ; preds = %_ZNSt6vectorIN3ue211DepthMinMaxESaIS1_EED2Ev.exit
  tail call void @_ZdlPv(ptr noundef nonnull %5) #15
  br label %_ZNSt6vectorIN3ue211DepthMinMaxESaIS1_EED2Ev.exit2

_ZNSt6vectorIN3ue211DepthMinMaxESaIS1_EED2Ev.exit2: ; preds = %_ZNSt6vectorIN3ue211DepthMinMaxESaIS1_EED2Ev.exit, %6
  ret void
}